target datalayout = "e-m:e-p270:32:32-p271:32:32-p272:64:64-i64:64-i128:128-f80:128-n8:16:32:64-S128"
target triple = "x86_64-pc-linux-gnu"

@.str.44 = private unnamed_addr constant [14 x i8] c"@    with g0\0A\00", align 1
@.str.45 = private unnamed_addr constant [23 x i8] c"@    s%d linestyle %d\0A\00", align 1
@.str.46 = private unnamed_addr constant [19 x i8] c"@    s%d color %d\0A\00", align 1

; Function Attrs: mustprogress uwtable
define noundef zeroext i1 @_Z31output_env_get_print_xvgr_codesPK16gmx_output_env_t(ptr noundef %0) #0 {
  %2 = alloca ptr, align 8
  %3 = alloca i32, align 4
  store ptr %0, ptr %2, align 8
  %4 = load ptr, ptr %2, align 8
  %5 = call noundef i32 @_Z25output_env_get_xvg_formatPK16gmx_output_env_t(ptr noundef %4)
  store i32 %5, ptr %3, align 4
  %6 = load i32, ptr %3, align 4
  %7 = icmp eq i32 %6, 0
  br i1 %7, label %11, label %8

8:                                                ; preds = %1
  %9 = load i32, ptr %3, align 4
  %10 = icmp eq i32 %9, 1
  br label %11

11:                                               ; preds = %8, %1
  %12 = phi i1 [ true, %1 ], [ %10, %8 ]
  ret i1 %12
}

; Function Attrs: mustprogress uwtable
define void @_Z15xvgr_line_propsP8_IO_FILEiiiPK16gmx_output_env_t(ptr noundef %0, i32 noundef %1, i32 noundef %2, i32 noundef %3, ptr noundef %4) #0 {
  %6 = alloca ptr, align 8
  %7 = alloca i32, align 4
  %8 = alloca i32, align 4
  %9 = alloca i32, align 4
  %10 = alloca ptr, align 8
  store ptr %0, ptr %6, align 8
  store i32 %1, ptr %7, align 4
  store i32 %2, ptr %8, align 4
  store i32 %3, ptr %9, align 4
  store ptr %4, ptr %10, align 8
  %11 = load ptr, ptr %10, align 8
  %12 = call noundef zeroext i1 @_Z31output_env_get_print_xvgr_codesPK16gmx_output_env_t(ptr noundef %11)
  br i1 %12, label %13, label %24

13:                                               ; preds = %5
  %14 = load ptr, ptr %6, align 8
  %15 = call i32 (ptr, ptr, ...) @fprintf(ptr noundef %14, ptr noundef @.str.44) #13
  %16 = load ptr, ptr %6, align 8
  %17 = load i32, ptr %7, align 4
  %18 = load i32, ptr %8, align 4
  %19 = call i32 (ptr, ptr, ...) @fprintf(ptr noundef %16, ptr noundef @.str.45, i32 noundef %17, i32 noundef %18) #13
  %20 = load ptr, ptr %6, align 8
  %21 = load i32, ptr %7, align 4
  %22 = load i32, ptr %9, align 4
  %23 = call i32 (ptr, ptr, ...) @fprintf(ptr noundef %20, ptr noundef @.str.46, i32 noundef %21, i32 noundef %22) #13
  br label %24

24:                                               ; preds = %13, %5
  ret void
}