; Function Attrs: mustprogress uwtable
define void @_Z15xvgr_line_propsP8_IO_FILEiiiPK16gmx_output_env_t(ptr nocapture noundef %0, i32 noundef %1, i32 noundef %2, i32 noundef %3, ptr noundef %4) local_unnamed_addr #0 {
  %6 = tail call noundef i32 @_Z25output_env_get_xvg_formatPK16gmx_output_env_t(ptr noundef %4)
  %7 = icmp ult i32 %6, 2
  br i1 %7, label %8, label %12

8:                                                ; preds = %5
  %9 = tail call i64 @fwrite(ptr nonnull @.str.44, i64 13, i64 1, ptr %0)
  %10 = tail call i32 (ptr, ptr, ...) @fprintf(ptr noundef %0, ptr noundef nonnull @.str.45, i32 noundef %1, i32 noundef %2) #20
  %11 = tail call i32 (ptr, ptr, ...) @fprintf(ptr noundef %0, ptr noundef nonnull @.str.46, i32 noundef %1, i32 noundef %3) #20
  br label %12

12:                                               ; preds = %8, %5
  ret void
}